target datalayout = "e-m:e-p270:32:32-p271:32:32-p272:64:64-i64:64-i128:128-f80:128-n8:16:32:64-S128"
target triple = "x86_64-pc-linux-gnu"

%struct.AVFilterContext = type { ptr, ptr, ptr, ptr, ptr, i32, ptr, ptr, i32, ptr, ptr, i32, i32, ptr, ptr, ptr, ptr, i32, ptr, i32, i32 }
%struct.HysteresisContext = type { ptr, %struct.FFFrameSync, i32, i32, [4 x i32], [4 x i32], i32, i32, ptr, ptr, i32, ptr }
%struct.FFFrameSync = type { ptr, ptr, i32, %struct.AVRational, i64, ptr, ptr, i32, i32, i8, i8, ptr, i32, i32, i32, i32 }
%struct.AVRational = type { i32, i32 }
%struct.AVFilterLink = type { ptr, ptr, ptr, ptr, i32, i32, i32, i32, %struct.AVRational, i32, i32, i32, %struct.AVChannelLayout, %struct.AVRational, ptr, i32, %struct.AVFilterFormatsConfig, %struct.AVFilterFormatsConfig }
%struct.AVChannelLayout = type { i32, i32, %union.anon.1, ptr }
%union.anon.1 = type { i64 }
%struct.AVFilterFormatsConfig = type { ptr, ptr, ptr, ptr, ptr }
%struct.AVFrame = type { [8 x ptr], [8 x i32], ptr, i32, i32, i32, i32, i32, %struct.AVRational, i64, i64, %struct.AVRational, i32, ptr, i32, i32, [8 x ptr], ptr, i32, ptr, i32, i32, i32, i32, i32, i32, i32, i64, ptr, i32, ptr, ptr, i64, i64, i64, i64, ptr, %struct.AVChannelLayout, i64 }

; Function Attrs: nounwind uwtable
define internal i32 @process_frame(ptr noundef %0) #0 {
  %2 = alloca i32, align 4
  %3 = alloca ptr, align 8
  %4 = alloca ptr, align 8
  %5 = alloca ptr, align 8
  %6 = alloca ptr, align 8
  %7 = alloca ptr, align 8
  %8 = alloca ptr, align 8
  %9 = alloca ptr, align 8
  %10 = alloca i32, align 4
  %11 = alloca i32, align 4
  %12 = alloca i32, align 4
  %13 = alloca i32, align 4
  store ptr %0, ptr %3, align 8, !tbaa !93
  call void @llvm.lifetime.start.p0(i64 8, ptr %4) #9
  %14 = load ptr, ptr %3, align 8, !tbaa !93
  %15 = getelementptr inbounds nuw %struct.FFFrameSync, ptr %14, i32 0, i32 1
  %16 = load ptr, ptr %15, align 8, !tbaa !95
  store ptr %16, ptr %4, align 8, !tbaa !4
  call void @llvm.lifetime.start.p0(i64 8, ptr %5) #9
  %17 = load ptr, ptr %3, align 8, !tbaa !93
  %18 = getelementptr inbounds nuw %struct.FFFrameSync, ptr %17, i32 0, i32 6
  %19 = load ptr, ptr %18, align 8, !tbaa !96
  store ptr %19, ptr %5, align 8, !tbaa !22
  call void @llvm.lifetime.start.p0(i64 8, ptr %6) #9
  %20 = load ptr, ptr %4, align 8, !tbaa !4
  %21 = getelementptr inbounds nuw %struct.AVFilterContext, ptr %20, i32 0, i32 7
  %22 = load ptr, ptr %21, align 8, !tbaa !97
  %23 = getelementptr inbounds ptr, ptr %22, i64 0
  %24 = load ptr, ptr %23, align 8, !tbaa !24
  store ptr %24, ptr %6, align 8, !tbaa !24
  call void @llvm.lifetime.start.p0(i64 8, ptr %7) #9
  call void @llvm.lifetime.start.p0(i64 8, ptr %8) #9
  call void @llvm.lifetime.start.p0(i64 8, ptr %9) #9
  call void @llvm.lifetime.start.p0(i64 4, ptr %10) #9
  %25 = load ptr, ptr %5, align 8, !tbaa !22
  %26 = getelementptr inbounds nuw %struct.HysteresisContext, ptr %25, i32 0, i32 1
  %27 = call i32 @ff_framesync_get_frame(ptr noundef %26, i32 noundef 0, ptr noundef %8, i32 noundef 0)
  store i32 %27, ptr %10, align 4, !tbaa !45
  %28 = icmp slt i32 %27, 0
  br i1 %28, label %34, label %29

29:                                               ; preds = %1
  %30 = load ptr, ptr %5, align 8, !tbaa !22
  %31 = getelementptr inbounds nuw %struct.HysteresisContext, ptr %30, i32 0, i32 1
  %32 = call i32 @ff_framesync_get_frame(ptr noundef %31, i32 noundef 1, ptr noundef %9, i32 noundef 0)
  store i32 %32, ptr %10, align 4, !tbaa !45
  %33 = icmp slt i32 %32, 0
  br i1 %33, label %34, label %36

34:                                               ; preds = %29, %1
  %35 = load i32, ptr %10, align 4, !tbaa !45
  store i32 %35, ptr %2, align 4
  store i32 1, ptr %11, align 4
  br label %263

36:                                               ; preds = %29
  %37 = load ptr, ptr %4, align 8, !tbaa !4
  %38 = getelementptr inbounds nuw %struct.AVFilterContext, ptr %37, i32 0, i32 17
  %39 = load i32, ptr %38, align 8, !tbaa !98
  %40 = icmp ne i32 %39, 0
  br i1 %40, label %41, label %48

41:                                               ; preds = %36
  %42 = load ptr, ptr %8, align 8, !tbaa !99
  %43 = call ptr @av_frame_clone(ptr noundef %42)
  store ptr %43, ptr %7, align 8, !tbaa !99
  %44 = load ptr, ptr %7, align 8, !tbaa !99
  %45 = icmp ne ptr %44, null
  br i1 %45, label %47, label %46

46:                                               ; preds = %41
  store i32 -12, ptr %2, align 4
  store i32 1, ptr %11, align 4
  br label %263

47:                                               ; preds = %41
  br label %245

48:                                               ; preds = %36
  call void @llvm.lifetime.start.p0(i64 4, ptr %12) #9
  %49 = load ptr, ptr %6, align 8, !tbaa !24
  %50 = load ptr, ptr %6, align 8, !tbaa !24
  %51 = getelementptr inbounds nuw %struct.AVFilterLink, ptr %50, i32 0, i32 6
  %52 = load i32, ptr %51, align 8, !tbaa !48
  %53 = load ptr, ptr %6, align 8, !tbaa !24
  %54 = getelementptr inbounds nuw %struct.AVFilterLink, ptr %53, i32 0, i32 7
  %55 = load i32, ptr %54, align 4, !tbaa !47
  %56 = call ptr @ff_get_video_buffer(ptr noundef %49, i32 noundef %52, i32 noundef %55)
  store ptr %56, ptr %7, align 8, !tbaa !99
  %57 = load ptr, ptr %7, align 8, !tbaa !99
  %58 = icmp ne ptr %57, null
  br i1 %58, label %60, label %59

59:                                               ; preds = %48
  store i32 -12, ptr %2, align 4
  store i32 1, ptr %11, align 4
  br label %242

60:                                               ; preds = %48
  %61 = load ptr, ptr %7, align 8, !tbaa !99
  %62 = load ptr, ptr %8, align 8, !tbaa !99
  %63 = call i32 @av_frame_copy_props(ptr noundef %61, ptr noundef %62)
  store i32 0, ptr %12, align 4, !tbaa !45
  br label %64

64:                                               ; preds = %238, %60
  %65 = load i32, ptr %12, align 4, !tbaa !45
  %66 = load ptr, ptr %5, align 8, !tbaa !22
  %67 = getelementptr inbounds nuw %struct.HysteresisContext, ptr %66, i32 0, i32 6
  %68 = load i32, ptr %67, align 8, !tbaa !37
  %69 = icmp slt i32 %65, %68
  br i1 %69, label %70, label %241

70:                                               ; preds = %64
  %71 = load i32, ptr %12, align 4, !tbaa !45
  %72 = shl i32 1, %71
  %73 = load ptr, ptr %5, align 8, !tbaa !22
  %74 = getelementptr inbounds nuw %struct.HysteresisContext, ptr %73, i32 0, i32 2
  %75 = load i32, ptr %74, align 8, !tbaa !100
  %76 = and i32 %72, %75
  %77 = icmp ne i32 %76, 0
  br i1 %77, label %115, label %78

78:                                               ; preds = %70
  %79 = load ptr, ptr %7, align 8, !tbaa !99
  %80 = getelementptr inbounds nuw %struct.AVFrame, ptr %79, i32 0, i32 0
  %81 = load i32, ptr %12, align 4, !tbaa !45
  %82 = sext i32 %81 to i64
  %83 = getelementptr inbounds [8 x ptr], ptr %80, i64 0, i64 %82
  %84 = load ptr, ptr %83, align 8, !tbaa !55
  %85 = load ptr, ptr %7, align 8, !tbaa !99
  %86 = getelementptr inbounds nuw %struct.AVFrame, ptr %85, i32 0, i32 1
  %87 = load i32, ptr %12, align 4, !tbaa !45
  %88 = sext i32 %87 to i64
  %89 = getelementptr inbounds [8 x i32], ptr %86, i64 0, i64 %88
  %90 = load i32, ptr %89, align 4, !tbaa !45
  %91 = load ptr, ptr %8, align 8, !tbaa !99
  %92 = getelementptr inbounds nuw %struct.AVFrame, ptr %91, i32 0, i32 0
  %93 = load i32, ptr %12, align 4, !tbaa !45
  %94 = sext i32 %93 to i64
  %95 = getelementptr inbounds [8 x ptr], ptr %92, i64 0, i64 %94
  %96 = load ptr, ptr %95, align 8, !tbaa !55
  %97 = load ptr, ptr %8, align 8, !tbaa !99
  %98 = getelementptr inbounds nuw %struct.AVFrame, ptr %97, i32 0, i32 1
  %99 = load i32, ptr %12, align 4, !tbaa !45
  %100 = sext i32 %99 to i64
  %101 = getelementptr inbounds [8 x i32], ptr %98, i64 0, i64 %100
  %102 = load i32, ptr %101, align 4, !tbaa !45
  %103 = load ptr, ptr %5, align 8, !tbaa !22
  %104 = getelementptr inbounds nuw %struct.HysteresisContext, ptr %103, i32 0, i32 4
  %105 = load i32, ptr %12, align 4, !tbaa !45
  %106 = sext i32 %105 to i64
  %107 = getelementptr inbounds [4 x i32], ptr %104, i64 0, i64 %106
  %108 = load i32, ptr %107, align 4, !tbaa !45
  %109 = load ptr, ptr %5, align 8, !tbaa !22
  %110 = getelementptr inbounds nuw %struct.HysteresisContext, ptr %109, i32 0, i32 5
  %111 = load i32, ptr %12, align 4, !tbaa !45
  %112 = sext i32 %111 to i64
  %113 = getelementptr inbounds [4 x i32], ptr %110, i64 0, i64 %112
  %114 = load i32, ptr %113, align 4, !tbaa !45
  call void @av_image_copy_plane(ptr noundef %84, i32 noundef %90, ptr noundef %96, i32 noundef %102, i32 noundef %108, i32 noundef %114)
  br label %238

115:                                              ; preds = %70
  call void @llvm.lifetime.start.p0(i64 4, ptr %13) #9
  store i32 0, ptr %13, align 4, !tbaa !45
  br label %116

116:                                              ; preds = %149, %115
  %117 = load i32, ptr %13, align 4, !tbaa !45
  %118 = load ptr, ptr %5, align 8, !tbaa !22
  %119 = getelementptr inbounds nuw %struct.HysteresisContext, ptr %118, i32 0, i32 5
  %120 = load i32, ptr %12, align 4, !tbaa !45
  %121 = sext i32 %120 to i64
  %122 = getelementptr inbounds [4 x i32], ptr %119, i64 0, i64 %121
  %123 = load i32, ptr %122, align 4, !tbaa !45
  %124 = icmp slt i32 %117, %123
  br i1 %124, label %125, label %152

125:                                              ; preds = %116
  %126 = load ptr, ptr %7, align 8, !tbaa !99
  %127 = getelementptr inbounds nuw %struct.AVFrame, ptr %126, i32 0, i32 0
  %128 = load i32, ptr %12, align 4, !tbaa !45
  %129 = sext i32 %128 to i64
  %130 = getelementptr inbounds [8 x ptr], ptr %127, i64 0, i64 %129
  %131 = load ptr, ptr %130, align 8, !tbaa !55
  %132 = load i32, ptr %13, align 4, !tbaa !45
  %133 = load ptr, ptr %7, align 8, !tbaa !99
  %134 = getelementptr inbounds nuw %struct.AVFrame, ptr %133, i32 0, i32 1
  %135 = load i32, ptr %12, align 4, !tbaa !45
  %136 = sext i32 %135 to i64
  %137 = getelementptr inbounds [8 x i32], ptr %134, i64 0, i64 %136
  %138 = load i32, ptr %137, align 4, !tbaa !45
  %139 = mul nsw i32 %132, %138
  %140 = sext i32 %139 to i64
  %141 = getelementptr inbounds i8, ptr %131, i64 %140
  %142 = load ptr, ptr %5, align 8, !tbaa !22
  %143 = getelementptr inbounds nuw %struct.HysteresisContext, ptr %142, i32 0, i32 4
  %144 = load i32, ptr %12, align 4, !tbaa !45
  %145 = sext i32 %144 to i64
  %146 = getelementptr inbounds [4 x i32], ptr %143, i64 0, i64 %145
  %147 = load i32, ptr %146, align 4, !tbaa !45
  %148 = sext i32 %147 to i64
  call void @llvm.memset.p0.i64(ptr align 1 %141, i8 0, i64 %148, i1 false)
  br label %149

149:                                              ; preds = %125
  %150 = load i32, ptr %13, align 4, !tbaa !45
  %151 = add nsw i32 %150, 1
  store i32 %151, ptr %13, align 4, !tbaa !45
  br label %116, !llvm.loop !101

152:                                              ; preds = %116
  call void @llvm.lifetime.end.p0(i64 4, ptr %13) #9
  br label %153

153:                                              ; preds = %152
  %154 = load ptr, ptr %5, align 8, !tbaa !22
  %155 = getelementptr inbounds nuw %struct.HysteresisContext, ptr %154, i32 0, i32 10
  store i32 -1, ptr %155, align 8, !tbaa !74
  %156 = load ptr, ptr %5, align 8, !tbaa !22
  %157 = getelementptr inbounds nuw %struct.HysteresisContext, ptr %156, i32 0, i32 8
  %158 = load ptr, ptr %157, align 8, !tbaa !53
  %159 = load ptr, ptr %5, align 8, !tbaa !22
  %160 = getelementptr inbounds nuw %struct.HysteresisContext, ptr %159, i32 0, i32 4
  %161 = getelementptr inbounds [4 x i32], ptr %160, i64 0, i64 0
  %162 = load i32, ptr %161, align 8, !tbaa !45
  %163 = load ptr, ptr %5, align 8, !tbaa !22
  %164 = getelementptr inbounds nuw %struct.HysteresisContext, ptr %163, i32 0, i32 5
  %165 = getelementptr inbounds [4 x i32], ptr %164, i64 0, i64 0
  %166 = load i32, ptr %165, align 8, !tbaa !45
  %167 = mul nsw i32 %162, %166
  %168 = sext i32 %167 to i64
  call void @llvm.memset.p0.i64(ptr align 1 %158, i8 0, i64 %168, i1 false)
  %169 = load ptr, ptr %5, align 8, !tbaa !22
  %170 = getelementptr inbounds nuw %struct.HysteresisContext, ptr %169, i32 0, i32 9
  %171 = load ptr, ptr %170, align 8, !tbaa !54
  %172 = load ptr, ptr %5, align 8, !tbaa !22
  %173 = getelementptr inbounds nuw %struct.HysteresisContext, ptr %172, i32 0, i32 4
  %174 = getelementptr inbounds [4 x i32], ptr %173, i64 0, i64 0
  %175 = load i32, ptr %174, align 8, !tbaa !45
  %176 = load ptr, ptr %5, align 8, !tbaa !22
  %177 = getelementptr inbounds nuw %struct.HysteresisContext, ptr %176, i32 0, i32 5
  %178 = getelementptr inbounds [4 x i32], ptr %177, i64 0, i64 0
  %179 = load i32, ptr %178, align 8, !tbaa !45
  %180 = mul nsw i32 %175, %179
  %181 = mul nsw i32 %180, 4
  %182 = sext i32 %181 to i64
  call void @llvm.memset.p0.i64(ptr align 4 %171, i8 0, i64 %182, i1 false)
  %183 = load ptr, ptr %5, align 8, !tbaa !22
  %184 = getelementptr inbounds nuw %struct.HysteresisContext, ptr %183, i32 0, i32 11
  %185 = load ptr, ptr %184, align 8, !tbaa !52
  %186 = load ptr, ptr %5, align 8, !tbaa !22
  %187 = load ptr, ptr %8, align 8, !tbaa !99
  %188 = getelementptr inbounds nuw %struct.AVFrame, ptr %187, i32 0, i32 0
  %189 = load i32, ptr %12, align 4, !tbaa !45
  %190 = sext i32 %189 to i64
  %191 = getelementptr inbounds [8 x ptr], ptr %188, i64 0, i64 %190
  %192 = load ptr, ptr %191, align 8, !tbaa !55
  %193 = load ptr, ptr %9, align 8, !tbaa !99
  %194 = getelementptr inbounds nuw %struct.AVFrame, ptr %193, i32 0, i32 0
  %195 = load i32, ptr %12, align 4, !tbaa !45
  %196 = sext i32 %195 to i64
  %197 = getelementptr inbounds [8 x ptr], ptr %194, i64 0, i64 %196
  %198 = load ptr, ptr %197, align 8, !tbaa !55
  %199 = load ptr, ptr %7, align 8, !tbaa !99
  %200 = getelementptr inbounds nuw %struct.AVFrame, ptr %199, i32 0, i32 0
  %201 = load i32, ptr %12, align 4, !tbaa !45
  %202 = sext i32 %201 to i64
  %203 = getelementptr inbounds [8 x ptr], ptr %200, i64 0, i64 %202
  %204 = load ptr, ptr %203, align 8, !tbaa !55
  %205 = load ptr, ptr %8, align 8, !tbaa !99
  %206 = getelementptr inbounds nuw %struct.AVFrame, ptr %205, i32 0, i32 1
  %207 = load i32, ptr %12, align 4, !tbaa !45
  %208 = sext i32 %207 to i64
  %209 = getelementptr inbounds [8 x i32], ptr %206, i64 0, i64 %208
  %210 = load i32, ptr %209, align 4, !tbaa !45
  %211 = sext i32 %210 to i64
  %212 = load ptr, ptr %9, align 8, !tbaa !99
  %213 = getelementptr inbounds nuw %struct.AVFrame, ptr %212, i32 0, i32 1
  %214 = load i32, ptr %12, align 4, !tbaa !45
  %215 = sext i32 %214 to i64
  %216 = getelementptr inbounds [8 x i32], ptr %213, i64 0, i64 %215
  %217 = load i32, ptr %216, align 4, !tbaa !45
  %218 = sext i32 %217 to i64
  %219 = load ptr, ptr %7, align 8, !tbaa !99
  %220 = getelementptr inbounds nuw %struct.AVFrame, ptr %219, i32 0, i32 1
  %221 = load i32, ptr %12, align 4, !tbaa !45
  %222 = sext i32 %221 to i64
  %223 = getelementptr inbounds [8 x i32], ptr %220, i64 0, i64 %222
  %224 = load i32, ptr %223, align 4, !tbaa !45
  %225 = sext i32 %224 to i64
  %226 = load ptr, ptr %5, align 8, !tbaa !22
  %227 = getelementptr inbounds nuw %struct.HysteresisContext, ptr %226, i32 0, i32 4
  %228 = load i32, ptr %12, align 4, !tbaa !45
  %229 = sext i32 %228 to i64
  %230 = getelementptr inbounds [4 x i32], ptr %227, i64 0, i64 %229
  %231 = load i32, ptr %230, align 4, !tbaa !45
  %232 = load ptr, ptr %5, align 8, !tbaa !22
  %233 = getelementptr inbounds nuw %struct.HysteresisContext, ptr %232, i32 0, i32 5
  %234 = load i32, ptr %12, align 4, !tbaa !45
  %235 = sext i32 %234 to i64
  %236 = getelementptr inbounds [4 x i32], ptr %233, i64 0, i64 %235
  %237 = load i32, ptr %236, align 4, !tbaa !45
  call void %185(ptr noundef %186, ptr noundef %192, ptr noundef %198, ptr noundef %204, i64 noundef %211, i64 noundef %218, i64 noundef %225, i32 noundef %231, i32 noundef %237)
  br label %238

238:                                              ; preds = %153, %78
  %239 = load i32, ptr %12, align 4, !tbaa !45
  %240 = add nsw i32 %239, 1
  store i32 %240, ptr %12, align 4, !tbaa !45
  br label %64, !llvm.loop !102

241:                                              ; preds = %64
  store i32 0, ptr %11, align 4
  br label %242

242:                                              ; preds = %241, %59
  call void @llvm.lifetime.end.p0(i64 4, ptr %12) #9
  %243 = load i32, ptr %11, align 4
  switch i32 %243, label %263 [
    i32 0, label %244
  ]

244:                                              ; preds = %242
  br label %245

245:                                              ; preds = %244, %47
  %246 = load ptr, ptr %5, align 8, !tbaa !22
  %247 = getelementptr inbounds nuw %struct.HysteresisContext, ptr %246, i32 0, i32 1
  %248 = getelementptr inbounds nuw %struct.FFFrameSync, ptr %247, i32 0, i32 4
  %249 = load i64, ptr %248, align 8, !tbaa !103
  %250 = load ptr, ptr %5, align 8, !tbaa !22
  %251 = getelementptr inbounds nuw %struct.HysteresisContext, ptr %250, i32 0, i32 1
  %252 = getelementptr inbounds nuw %struct.FFFrameSync, ptr %251, i32 0, i32 3
  %253 = load ptr, ptr %6, align 8, !tbaa !24
  %254 = getelementptr inbounds nuw %struct.AVFilterLink, ptr %253, i32 0, i32 13
  %255 = load i64, ptr %252, align 4
  %256 = load i64, ptr %254, align 8
  %257 = call i64 @av_rescale_q(i64 noundef %249, i64 %255, i64 %256) #10
  %258 = load ptr, ptr %7, align 8, !tbaa !99
  %259 = getelementptr inbounds nuw %struct.AVFrame, ptr %258, i32 0, i32 9
  store i64 %257, ptr %259, align 8, !tbaa !104
  %260 = load ptr, ptr %6, align 8, !tbaa !24
  %261 = load ptr, ptr %7, align 8, !tbaa !99
  %262 = call i32 @ff_filter_frame(ptr noundef %260, ptr noundef %261)
  store i32 %262, ptr %2, align 4
  store i32 1, ptr %11, align 4
  br label %263

263:                                              ; preds = %245, %242, %46, %34
  call void @llvm.lifetime.end.p0(i64 4, ptr %10) #9
  call void @llvm.lifetime.end.p0(i64 8, ptr %9) #9
  call void @llvm.lifetime.end.p0(i64 8, ptr %8) #9
  call void @llvm.lifetime.end.p0(i64 8, ptr %7) #9
  call void @llvm.lifetime.end.p0(i64 8, ptr %6) #9
  call void @llvm.lifetime.end.p0(i64 8, ptr %5) #9
  call void @llvm.lifetime.end.p0(i64 8, ptr %4) #9
  %264 = load i32, ptr %2, align 4
  ret i32 %264
}