; Function Attrs: nounwind uwtable
define internal i32 @process_frame(ptr noundef readonly captures(none) %0) #0 {
  %2 = alloca ptr, align 8
  %3 = alloca ptr, align 8
  %4 = getelementptr inbounds nuw i8, ptr %0, i64 8
  %5 = load ptr, ptr %4, align 8, !tbaa !79
  %6 = getelementptr inbounds nuw i8, ptr %0, i64 48
  %7 = load ptr, ptr %6, align 8, !tbaa !80
  %8 = getelementptr inbounds nuw i8, ptr %5, i64 56
  %9 = load ptr, ptr %8, align 8, !tbaa !81
  %10 = load ptr, ptr %9, align 8, !tbaa !66
  call void @llvm.lifetime.start.p0(i64 8, ptr nonnull %2) #9
  call void @llvm.lifetime.start.p0(i64 8, ptr nonnull %3) #9
  %11 = getelementptr inbounds nuw i8, ptr %7, i64 8
  %12 = call i32 @ff_framesync_get_frame(ptr noundef nonnull %11, i32 noundef 0, ptr noundef nonnull %2, i32 noundef 0) #9
  %13 = icmp slt i32 %12, 0
  br i1 %13, label %.critedge, label %14

14:                                               ; preds = %1
  %15 = call i32 @ff_framesync_get_frame(ptr noundef nonnull %11, i32 noundef 1, ptr noundef nonnull %3, i32 noundef 0) #9
  %16 = icmp slt i32 %15, 0
  br i1 %16, label %.critedge, label %17

17:                                               ; preds = %14
  %18 = getelementptr inbounds nuw i8, ptr %5, i64 128
  %19 = load i32, ptr %18, align 8, !tbaa !82
  %.not = icmp eq i32 %19, 0
  br i1 %.not, label %23, label %20

20:                                               ; preds = %17
  %21 = load ptr, ptr %2, align 8, !tbaa !83
  %22 = call ptr @av_frame_clone(ptr noundef %21) #9
  %.not78 = icmp eq ptr %22, null
  br i1 %.not78, label %.critedge, label %.loopexit

23:                                               ; preds = %17
  %24 = getelementptr inbounds nuw i8, ptr %10, i64 40
  %25 = load i32, ptr %24, align 8, !tbaa !41
  %26 = getelementptr inbounds nuw i8, ptr %10, i64 44
  %27 = load i32, ptr %26, align 4, !tbaa !38
  %28 = call ptr @ff_get_video_buffer(ptr noundef %10, i32 noundef %25, i32 noundef %27) #9
  %.not76.not = icmp eq ptr %28, null
  br i1 %.not76.not, label %.critedge, label %29

29:                                               ; preds = %23
  %30 = load ptr, ptr %2, align 8, !tbaa !83
  %31 = call i32 @av_frame_copy_props(ptr noundef nonnull %28, ptr noundef %30) #9
  %32 = getelementptr inbounds nuw i8, ptr %7, i64 144
  %33 = load i32, ptr %32, align 8, !tbaa !30
  %34 = icmp sgt i32 %33, 0
  br i1 %34, label %.lr.ph89, label %.loopexit

.lr.ph89:                                         ; preds = %29
  %35 = getelementptr inbounds nuw i8, ptr %7, i64 104
  %36 = getelementptr inbounds nuw i8, ptr %7, i64 128
  %37 = getelementptr inbounds nuw i8, ptr %28, i64 64
  %38 = getelementptr inbounds nuw i8, ptr %7, i64 112
  %39 = getelementptr inbounds nuw i8, ptr %7, i64 168
  %40 = getelementptr inbounds nuw i8, ptr %7, i64 152
  %41 = getelementptr inbounds nuw i8, ptr %7, i64 160
  %42 = getelementptr inbounds nuw i8, ptr %7, i64 176
  br label %43

43:                                               ; preds = %.lr.ph89, %114
  %indvars.iv = phi i64 [ 0, %.lr.ph89 ], [ %indvars.iv.next, %114 ]
  %44 = trunc nuw nsw i64 %indvars.iv to i32
  %45 = shl nuw i32 1, %44
  %46 = load i32, ptr %35, align 8, !tbaa !84
  %47 = and i32 %46, %45
  %.not77 = icmp eq i32 %47, 0
  br i1 %.not77, label %54, label %.preheader

.preheader:                                       ; preds = %43
  %48 = getelementptr inbounds nuw [4 x i32], ptr %36, i64 0, i64 %indvars.iv
  %49 = load i32, ptr %48, align 4, !tbaa !40
  %50 = icmp sgt i32 %49, 0
  br i1 %50, label %.lr.ph, label %._crit_edge

.lr.ph:                                           ; preds = %.preheader
  %51 = getelementptr inbounds nuw [8 x ptr], ptr %28, i64 0, i64 %indvars.iv
  %52 = getelementptr inbounds nuw [8 x i32], ptr %37, i64 0, i64 %indvars.iv
  %53 = getelementptr inbounds nuw [4 x i32], ptr %38, i64 0, i64 %indvars.iv
  br label %69

54:                                               ; preds = %43
  %55 = getelementptr inbounds nuw [8 x ptr], ptr %28, i64 0, i64 %indvars.iv
  %56 = load ptr, ptr %55, align 8, !tbaa !85
  %57 = getelementptr inbounds nuw [8 x i32], ptr %37, i64 0, i64 %indvars.iv
  %58 = load i32, ptr %57, align 4, !tbaa !40
  %59 = load ptr, ptr %2, align 8, !tbaa !83
  %60 = getelementptr inbounds nuw [8 x ptr], ptr %59, i64 0, i64 %indvars.iv
  %61 = load ptr, ptr %60, align 8, !tbaa !85
  %62 = getelementptr inbounds nuw i8, ptr %59, i64 64
  %63 = getelementptr inbounds nuw [8 x i32], ptr %62, i64 0, i64 %indvars.iv
  %64 = load i32, ptr %63, align 4, !tbaa !40
  %65 = getelementptr inbounds nuw [4 x i32], ptr %38, i64 0, i64 %indvars.iv
  %66 = load i32, ptr %65, align 4, !tbaa !40
  %67 = getelementptr inbounds nuw [4 x i32], ptr %36, i64 0, i64 %indvars.iv
  %68 = load i32, ptr %67, align 4, !tbaa !40
  call void @av_image_copy_plane(ptr noundef %56, i32 noundef %58, ptr noundef %61, i32 noundef %64, i32 noundef %66, i32 noundef %68) #9
  br label %114

69:                                               ; preds = %.lr.ph, %69
  %.083 = phi i32 [ 0, %.lr.ph ], [ %77, %69 ]
  %70 = load ptr, ptr %51, align 8, !tbaa !85
  %71 = load i32, ptr %52, align 4, !tbaa !40
  %72 = mul nsw i32 %71, %.083
  %73 = sext i32 %72 to i64
  %74 = getelementptr inbounds i8, ptr %70, i64 %73
  %75 = load i32, ptr %53, align 4, !tbaa !40
  %76 = sext i32 %75 to i64
  call void @llvm.memset.p0.i64(ptr align 1 %74, i8 0, i64 %76, i1 false)
  %77 = add nuw nsw i32 %.083, 1
  %78 = load i32, ptr %48, align 4, !tbaa !40
  %79 = icmp slt i32 %77, %78
  br i1 %79, label %69, label %._crit_edge, !llvm.loop !86

._crit_edge:                                      ; preds = %69, %.preheader
  store i32 -1, ptr %39, align 8, !tbaa !50
  %80 = load ptr, ptr %40, align 8, !tbaa !46
  %81 = load i32, ptr %38, align 8, !tbaa !40
  %82 = load i32, ptr %36, align 8, !tbaa !40
  %83 = mul nsw i32 %82, %81
  %84 = sext i32 %83 to i64
  call void @llvm.memset.p0.i64(ptr align 1 %80, i8 0, i64 %84, i1 false)
  %85 = load ptr, ptr %41, align 8, !tbaa !47
  %86 = load i32, ptr %38, align 8, !tbaa !40
  %87 = load i32, ptr %36, align 8, !tbaa !40
  %88 = shl i32 %86, 2
  %89 = mul i32 %88, %87
  %90 = sext i32 %89 to i64
  call void @llvm.memset.p0.i64(ptr align 4 %85, i8 0, i64 %90, i1 false)
  %91 = load ptr, ptr %42, align 8, !tbaa !45
  %92 = load ptr, ptr %2, align 8, !tbaa !83
  %93 = getelementptr inbounds nuw [8 x ptr], ptr %92, i64 0, i64 %indvars.iv
  %94 = load ptr, ptr %93, align 8, !tbaa !85
  %95 = load ptr, ptr %3, align 8, !tbaa !83
  %96 = getelementptr inbounds nuw [8 x ptr], ptr %95, i64 0, i64 %indvars.iv
  %97 = load ptr, ptr %96, align 8, !tbaa !85
  %98 = getelementptr inbounds nuw [8 x ptr], ptr %28, i64 0, i64 %indvars.iv
  %99 = load ptr, ptr %98, align 8, !tbaa !85
  %100 = getelementptr inbounds nuw i8, ptr %92, i64 64
  %101 = getelementptr inbounds nuw [8 x i32], ptr %100, i64 0, i64 %indvars.iv
  %102 = load i32, ptr %101, align 4, !tbaa !40
  %103 = sext i32 %102 to i64
  %104 = getelementptr inbounds nuw i8, ptr %95, i64 64
  %105 = getelementptr inbounds nuw [8 x i32], ptr %104, i64 0, i64 %indvars.iv
  %106 = load i32, ptr %105, align 4, !tbaa !40
  %107 = sext i32 %106 to i64
  %108 = getelementptr inbounds nuw [8 x i32], ptr %37, i64 0, i64 %indvars.iv
  %109 = load i32, ptr %108, align 4, !tbaa !40
  %110 = sext i32 %109 to i64
  %111 = getelementptr inbounds nuw [4 x i32], ptr %38, i64 0, i64 %indvars.iv
  %112 = load i32, ptr %111, align 4, !tbaa !40
  %113 = load i32, ptr %48, align 4, !tbaa !40
  call void %91(ptr noundef nonnull %7, ptr noundef %94, ptr noundef %97, ptr noundef %99, i64 noundef %103, i64 noundef %107, i64 noundef %110, i32 noundef %112, i32 noundef %113) #9
  br label %114

114:                                              ; preds = %._crit_edge, %54
  %indvars.iv.next = add nuw nsw i64 %indvars.iv, 1
  %115 = load i32, ptr %32, align 8, !tbaa !30
  %116 = sext i32 %115 to i64
  %117 = icmp slt i64 %indvars.iv.next, %116
  br i1 %117, label %43, label %.loopexit, !llvm.loop !87

.loopexit:                                        ; preds = %114, %29, %20
  %.070 = phi ptr [ %22, %20 ], [ %28, %29 ], [ %28, %114 ]
  %118 = getelementptr inbounds nuw i8, ptr %7, i64 40
  %119 = load i64, ptr %118, align 8, !tbaa !88
  %120 = getelementptr inbounds nuw i8, ptr %7, i64 28
  %121 = getelementptr inbounds nuw i8, ptr %10, i64 96
  %122 = load i64, ptr %120, align 4
  %123 = load i64, ptr %121, align 8
  %124 = call i64 @av_rescale_q(i64 noundef %119, i64 %122, i64 %123) #10
  %125 = getelementptr inbounds nuw i8, ptr %.070, i64 136
  store i64 %124, ptr %125, align 8, !tbaa !89
  %126 = call i32 @ff_filter_frame(ptr noundef %10, ptr noundef nonnull %.070) #9
  br label %.critedge

.critedge:                                        ; preds = %23, %20, %1, %14, %.loopexit
  %.071 = phi i32 [ %126, %.loopexit ], [ %12, %1 ], [ %15, %14 ], [ -12, %20 ], [ -12, %23 ]
  call void @llvm.lifetime.end.p0(i64 8, ptr nonnull %3) #9
  call void @llvm.lifetime.end.p0(i64 8, ptr nonnull %2) #9
  ret i32 %.071
}